target datalayout = "e-m:e-p270:32:32-p271:32:32-p272:64:64-i64:64-i128:128-f80:128-n8:16:32:64-S128"
target triple = "x86_64-pc-linux-gnu"

%struct._zval_struct = type { %union._zend_value, %union.anon.0, %union.anon.3 }
%union._zend_value = type { i64 }
%union.anon.0 = type { i32 }
%union.anon.3 = type { i32 }
%struct._zend_array = type { %struct._zend_refcounted_h, %union.anon.4, i32, %union.anon.6, i32, i32, i32, i32, i64, ptr }
%struct._zend_refcounted_h = type { i32, %union.anon }
%union.anon = type { i32 }
%union.anon.4 = type { i32 }
%union.anon.6 = type { ptr }
%struct._php_random_status_state_pcgoneseq128xslrr64 = type { i128 }
%struct._zend_string = type { %struct._zend_refcounted_h, i64, i64, [1 x i8] }

; Function Attrs: nounwind uwtable
define internal { i64, i64 } @php_random_uint128_constant(i64 noundef %0, i64 noundef %1) #0 {
  %3 = alloca i128, align 16
  %4 = alloca i64, align 8
  %5 = alloca i64, align 8
  %6 = alloca i128, align 16
  store i64 %0, ptr %4, align 8
  store i64 %1, ptr %5, align 8
  %7 = load i64, ptr %4, align 8
  %8 = zext i64 %7 to i128
  %9 = shl i128 %8, 64
  %10 = load i64, ptr %5, align 8
  %11 = zext i64 %10 to i128
  %12 = add i128 %9, %11
  store i128 %12, ptr %6, align 16
  %13 = load i128, ptr %6, align 16
  store i128 %13, ptr %3, align 16
  %14 = load { i64, i64 }, ptr %3, align 16
  ret { i64, i64 } %14
}

; Function Attrs: nounwind uwtable
define internal zeroext i1 @unserialize(ptr noundef %0, ptr noundef %1) #0 {
  %3 = alloca ptr, align 8
  %4 = alloca ptr, align 8
  %5 = alloca i1, align 1
  %6 = alloca ptr, align 8
  %7 = alloca ptr, align 8
  %8 = alloca ptr, align 8
  %9 = alloca [2 x i64], align 16
  %10 = alloca ptr, align 8
  %11 = alloca i32, align 4
  %12 = alloca i128, align 16
  store ptr %0, ptr %6, align 8
  store ptr %1, ptr %7, align 8
  %13 = load ptr, ptr %6, align 8
  store ptr %13, ptr %8, align 8
  %14 = load ptr, ptr %7, align 8
  store ptr %14, ptr %4, align 8
  %15 = load ptr, ptr %4, align 8
  %16 = getelementptr inbounds %struct._zend_array, ptr %15, i32 0, i32 5
  %17 = load i32, ptr %16, align 4
  %18 = icmp ne i32 %17, 2
  br i1 %18, label %19, label %20

19:                                               ; preds = %2
  store i1 false, ptr %5, align 1
  br label %72

20:                                               ; preds = %2
  store i32 0, ptr %11, align 4
  br label %21

21:                                               ; preds = %56, %20
  %22 = load i32, ptr %11, align 4
  %23 = icmp ult i32 %22, 2
  br i1 %23, label %24, label %59

24:                                               ; preds = %21
  %25 = load ptr, ptr %7, align 8
  %26 = load i32, ptr %11, align 4
  %27 = zext i32 %26 to i64
  %28 = call ptr @zend_hash_index_find(ptr noundef %25, i64 noundef %27)
  store ptr %28, ptr %10, align 8
  %29 = load ptr, ptr %10, align 8
  %30 = icmp ne ptr %29, null
  br i1 %30, label %31, label %45

31:                                               ; preds = %24
  %32 = load ptr, ptr %10, align 8
  store ptr %32, ptr %3, align 8
  %33 = load ptr, ptr %3, align 8
  %34 = getelementptr inbounds %struct._zval_struct, ptr %33, i32 0, i32 1
  %35 = load i8, ptr %34, align 8
  %36 = zext i8 %35 to i32
  %37 = icmp ne i32 %36, 6
  br i1 %37, label %45, label %38

38:                                               ; preds = %31
  %39 = load ptr, ptr %10, align 8
  %40 = getelementptr inbounds %struct._zval_struct, ptr %39, i32 0, i32 0
  %41 = load ptr, ptr %40, align 8
  %42 = getelementptr inbounds %struct._zend_string, ptr %41, i32 0, i32 2
  %43 = load i64, ptr %42, align 8
  %44 = icmp ne i64 %43, 16
  br i1 %44, label %45, label %46

45:                                               ; preds = %38, %31, %24
  store i1 false, ptr %5, align 1
  br label %72

46:                                               ; preds = %38
  %47 = load ptr, ptr %10, align 8
  %48 = getelementptr inbounds %struct._zval_struct, ptr %47, i32 0, i32 0
  %49 = load ptr, ptr %48, align 8
  %50 = load i32, ptr %11, align 4
  %51 = zext i32 %50 to i64
  %52 = getelementptr inbounds [2 x i64], ptr %9, i64 0, i64 %51
  %53 = call zeroext i1 @php_random_hex2bin_le(ptr noundef %49, ptr noundef %52)
  br i1 %53, label %55, label %54

54:                                               ; preds = %46
  store i1 false, ptr %5, align 1
  br label %72

55:                                               ; preds = %46
  br label %56

56:                                               ; preds = %55
  %57 = load i32, ptr %11, align 4
  %58 = add i32 %57, 1
  store i32 %58, ptr %11, align 4
  br label %21

59:                                               ; preds = %21
  %60 = getelementptr inbounds [2 x i64], ptr %9, i64 0, i64 0
  %61 = load i64, ptr %60, align 16
  %62 = getelementptr inbounds [2 x i64], ptr %9, i64 0, i64 1
  %63 = load i64, ptr %62, align 8
  %64 = call { i64, i64 } @php_random_uint128_constant(i64 noundef %61, i64 noundef %63)
  %65 = getelementptr inbounds { i64, i64 }, ptr %12, i32 0, i32 0
  %66 = extractvalue { i64, i64 } %64, 0
  store i64 %66, ptr %65, align 16
  %67 = getelementptr inbounds { i64, i64 }, ptr %12, i32 0, i32 1
  %68 = extractvalue { i64, i64 } %64, 1
  store i64 %68, ptr %67, align 8
  %69 = load i128, ptr %12, align 16
  %70 = load ptr, ptr %8, align 8
  %71 = getelementptr inbounds %struct._php_random_status_state_pcgoneseq128xslrr64, ptr %70, i32 0, i32 0
  store i128 %69, ptr %71, align 16
  store i1 true, ptr %5, align 1
  br label %72

72:                                               ; preds = %59, %54, %45, %19
  %73 = load i1, ptr %5, align 1
  ret i1 %73
}