; Function Attrs: nounwind uwtable
define internal noundef zeroext i1 @unserialize(ptr nocapture noundef writeonly %0, ptr noundef %1) #2 {
  %3 = alloca [2 x i64], align 16
  %4 = getelementptr inbounds i8, ptr %1, i64 28
  %5 = load i32, ptr %4, align 4
  %.not = icmp eq i32 %5, 2
  br i1 %.not, label %.preheader, label %.loopexit

6:                                                ; preds = %16
  br i1 %7, label %.preheader, label %19

.preheader:                                       ; preds = %2, %6
  %7 = phi i1 [ false, %6 ], [ true, %2 ]
  %indvars.iv = phi i64 [ 1, %6 ], [ 0, %2 ]
  %8 = call ptr @zend_hash_index_find(ptr noundef %1, i64 noundef %indvars.iv) #7
  %.not16 = icmp eq ptr %8, null
  br i1 %.not16, label %.loopexit, label %9

9:                                                ; preds = %.preheader
  %10 = getelementptr inbounds i8, ptr %8, i64 8
  %11 = load i8, ptr %10, align 8
  %.not17 = icmp eq i8 %11, 6
  br i1 %.not17, label %12, label %.loopexit

12:                                               ; preds = %9
  %13 = load ptr, ptr %8, align 8
  %14 = getelementptr inbounds i8, ptr %13, i64 16
  %15 = load i64, ptr %14, align 8
  %.not18 = icmp eq i64 %15, 16
  br i1 %.not18, label %16, label %.loopexit

16:                                               ; preds = %12
  %17 = getelementptr inbounds [2 x i64], ptr %3, i64 0, i64 %indvars.iv
  %18 = call zeroext i1 @php_random_hex2bin_le(ptr noundef nonnull %13, ptr noundef nonnull %17) #7
  br i1 %18, label %6, label %.loopexit

19:                                               ; preds = %6
  %20 = load i64, ptr %3, align 16
  %21 = getelementptr inbounds i8, ptr %3, i64 8
  %22 = load i64, ptr %21, align 8
  %.sroa.2.0.insert.ext = zext i64 %20 to i128
  %.sroa.2.0.insert.shift = shl nuw i128 %.sroa.2.0.insert.ext, 64
  %.sroa.0.0.insert.ext = zext i64 %22 to i128
  %.sroa.0.0.insert.insert = or disjoint i128 %.sroa.2.0.insert.shift, %.sroa.0.0.insert.ext
  store i128 %.sroa.0.0.insert.insert, ptr %0, align 16
  br label %.loopexit

.loopexit:                                        ; preds = %16, %.preheader, %9, %12, %2, %19
  %.0 = phi i1 [ true, %19 ], [ false, %2 ], [ false, %12 ], [ false, %9 ], [ false, %.preheader ], [ false, %16 ]
  ret i1 %.0
}